; Function Attrs: mustprogress nounwind willreturn uwtable
define hidden void @dtls1_hm_fragment_free(ptr noundef captures(address_is_null) %0) local_unnamed_addr #0 {
  %2 = icmp eq ptr %0, null
  br i1 %2, label %8, label %3

3:                                                ; preds = %1
  %4 = getelementptr inbounds nuw i8, ptr %0, i64 32
  %5 = load ptr, ptr %4, align 8, !tbaa !6
  tail call void @free(ptr noundef %5) #13
  %6 = getelementptr inbounds nuw i8, ptr %0, i64 40
  %7 = load ptr, ptr %6, align 8, !tbaa !15
  tail call void @free(ptr noundef %7) #13
  tail call void @free(ptr noundef nonnull %0) #13
  br label %8

8:                                                ; preds = %1, %3
  ret void
}